ccopy_reg
_reconstructor
p1
(csklearn.model_selection._search
GridSearchCV
p2
c__builtin__
object
p3
NtRp4
(dp5
S'scoring'
p6
NsS'n_jobs'
p7
I8
sS'verbose'
p8
I5
sS'fit_params'
p9
(dp10
sS'refit'
p11
I01
sS'return_train_score'
p12
I01
sS'iid'
p13
I01
sS'estimator'
p14
g1
(csklearn.ensemble.voting_classifier
VotingClassifier
p15
g3
NtRp16
(dp17
g7
I1
sS'weights'
p18
NsS'estimators'
p19
(lp20
(S'RF'
p21
g1
(csklearn.ensemble.forest
RandomForestClassifier
p22
g3
NtRp23
(dp24
S'warm_start'
p25
I00
sS'base_estimator'
p26
g1
(csklearn.tree.tree
DecisionTreeClassifier
p27
g3
NtRp28
(dp29
S'presort'
p30
I00
sS'splitter'
p31
S'best'
p32
sS'tree_'
p33
NsS'n_features_'
p34
NsS'n_outputs_'
p35
NsS'n_classes_'
p36
NsS'min_impurity_split'
p37
F9.9999999999999995e-08
sS'classes_'
p38
NsS'max_features_'
p39
NsS'min_samples_leaf'
p40
I1
sS'min_samples_split'
p41
I2
sS'random_state'
p42
NsS'criterion'
p43
S'gini'
p44
sS'min_weight_fraction_leaf'
p45
F0
sS'max_leaf_nodes'
p46
NsS'max_features'
p47
NsS'_sklearn_version'
p48
S'0.18'
p49
sS'max_depth'
p50
NsS'class_weight'
p51
NsbsS'estimators_'
p52
(lp53
sg7
I1
sg8
I0
sg46
NsS'bootstrap'
p54
I01
sS'oob_score'
p55
I00
sg40
I1
sS'n_estimators'
p56
I10
sg41
I2
sg42
I0
sg43
g44
sS'estimator_params'
p57
(S'criterion'
S'max_depth'
S'min_samples_split'
S'min_samples_leaf'
S'min_weight_fraction_leaf'
S'max_features'
S'max_leaf_nodes'
S'min_impurity_split'
S'random_state'
tp58
sg37
F9.9999999999999995e-08
sg47
S'auto'
p59
sg48
g49
sg45
F0
sg50
Nsg51
Nsbtp60
a(S'SVC'
p61
g1
(csklearn.svm.classes
SVC
p62
g3
NtRp63
(dp64
S'_impl'
p65
S'c_svc'
p66
sS'kernel'
p67
S'rbf'
p68
sS'C'
F1
sg8
I00
sS'probability'
p69
I01
sS'coef0'
p70
F0
sS'epsilon'
p71
F0
sS'max_iter'
p72
I-1
sS'decision_function_shape'
p73
Nsg42
Nsg48
g49
sS'tol'
p74
F0.001
sS'cache_size'
p75
I200
sg51
NsS'shrinking'
p76
I01
sS'nu'
p77
F0
sS'gamma'
p78
g59
sS'degree'
p79
I3
sbtp80
a(S'KNN'
p81
g1
(csklearn.neighbors.classification
KNeighborsClassifier
p82
g3
NtRp83
(dp84
S'n_neighbors'
p85
I5
sg7
I1
sS'algorithm'
p86
g59
sg48
g49
sS'metric'
p87
S'minkowski'
p88
sS'metric_params'
p89
NsS'p'
I2
sS'radius'
p90
NsS'leaf_size'
p91
I30
sS'_fit_method'
p92
Nsg18
S'distance'
p93
sS'_tree'
p94
NsS'_fit_X'
p95
Nsbtp96
a(S'AB'
p97
g1
(csklearn.ensemble.weight_boosting
AdaBoostClassifier
p98
g3
NtRp99
(dp100
g26
Nsg52
(lp101
sg86
S'SAMME.R'
p102
sS'learning_rate'
p103
F1
sg56
I50
sg42
Nsg48
g49
sg57
(tsbtp104
asg48
g49
sS'named_estimators'
p105
(dp106
g81
g83
sg21
g23
sg97
g99
sg61
g63
ssS'voting'
p107
S'soft'
p108
sbsg48
g49
sS'error_score'
p109
S'raise'
p110
sS'pre_dispatch'
p111
S'2*n_jobs'
p112
sS'param_grid'
p113
(dp114
S'KNN__p'
p115
(lp116
I1
aI5
asS'RF__n_estimators'
p117
(lp118
I50
aI100
aI250
aI500
aI1000
aI2000
asS'AB__learning_rate'
p119
(lp120
F0.10000000000000001
aF0.20000000000000001
aF0.29999999999999999
aF0.40000000000000002
aF0.5
aF0.59999999999999998
aF0.69999999999999996
aF0.80000000000000004
aF0.90000000000000002
aF1
asS'SVC__kernel'
p121
(lp122
S'linear'
p123
ag68
aS'poly'
p124
aS'sigmoid'
p125
asS'AB__n_estimators'
p126
(lp127
I50
aI100
aI250
aI500
aI1000
aI2000
asS'RF__min_samples_split'
p128
(lp129
I1
aI5
asS'KNN__n_neighbors'
p130
(lp131
I1
aI25
assS'cv'
p132
I5
sb.